; Function Attrs: mustprogress uwtable
define hidden noundef zeroext i1 @_ZN6spacer15is_mono_var_litEP4exprR11ast_manager(ptr noundef %0, ptr noundef nonnull align 8 dereferenceable(976) %1) local_unnamed_addr #3 {
  %3 = alloca %class.bv_util, align 8
  %4 = alloca %class.arith_util, align 8
  call void @llvm.lifetime.start.p0(i64 24, ptr nonnull %3) #17
  call void @_ZN7bv_utilC1ER11ast_manager(ptr noundef nonnull align 8 dereferenceable(24) %3, ptr noundef nonnull align 8 dereferenceable(976) %1)
  call void @llvm.lifetime.start.p0(i64 16, ptr nonnull %4) #17
  call void @_ZN10arith_utilC1ER11ast_manager(ptr noundef nonnull align 8 dereferenceable(16) %4, ptr noundef nonnull align 8 dereferenceable(976) %1)
  %5 = getelementptr inbounds nuw i8, ptr %0, i64 4
  %6 = load i32, ptr %5, align 4
  %7 = and i32 %6, 65535
  %8 = icmp eq i32 %7, 0
  br i1 %8, label %9, label %_ZNK14bv_recognizers9is_bv_sleEPK4expr.exit.thread

9:                                                ; preds = %2
  %10 = getelementptr inbounds nuw i8, ptr %0, i64 16
  %11 = load ptr, ptr %10, align 8, !tbaa !3
  %12 = getelementptr inbounds nuw i8, ptr %11, i64 24
  %13 = load ptr, ptr %12, align 8, !tbaa !13
  %.not.i.i.i.i.i = icmp eq ptr %13, null
  br i1 %.not.i.i.i.i.i, label %_ZNK14bv_recognizers9is_bv_sleEPK4expr.exit.thread, label %_ZNK11ast_manager6is_notEPK4expr.exit.i

_ZNK11ast_manager6is_notEPK4expr.exit.i:          ; preds = %9
  %14 = load i32, ptr %13, align 8, !tbaa !18
  %15 = icmp eq i32 %14, 0
  %16 = getelementptr inbounds nuw i8, ptr %13, i64 4
  %17 = load i32, ptr %16, align 4
  %18 = icmp eq i32 %17, 8
  %19 = select i1 %15, i1 %18, i1 false
  br i1 %19, label %20, label %_ZNK17arith_recognizers13is_arith_exprEPK4expr.exit

20:                                               ; preds = %_ZNK11ast_manager6is_notEPK4expr.exit.i
  %21 = getelementptr inbounds nuw i8, ptr %0, i64 24
  %22 = load i32, ptr %21, align 8, !tbaa !23
  %23 = icmp eq i32 %22, 1
  br i1 %23, label %24, label %_ZNK17arith_recognizers13is_arith_exprEPK4expr.exit

24:                                               ; preds = %20
  %25 = getelementptr inbounds nuw i8, ptr %0, i64 32
  %26 = load ptr, ptr %25, align 8, !tbaa !24
  %27 = call noundef zeroext i1 @_ZN6spacer15is_mono_var_litEP4exprR11ast_manager(ptr noundef %26, ptr noundef nonnull align 8 dereferenceable(976) %1)
  br label %_ZNK14bv_recognizers9is_bv_sleEPK4expr.exit.thread

_ZNK17arith_recognizers13is_arith_exprEPK4expr.exit: ; preds = %20, %_ZNK11ast_manager6is_notEPK4expr.exit.i
  %28 = load i32, ptr %13, align 8, !tbaa !18
  %29 = icmp eq i32 %28, 5
  br i1 %29, label %43, label %_ZNK14bv_recognizers9is_bv_uleEPK4expr.exit

_ZNK14bv_recognizers9is_bv_uleEPK4expr.exit:      ; preds = %_ZNK17arith_recognizers13is_arith_exprEPK4expr.exit
  %30 = load i32, ptr %3, align 8, !tbaa !26
  %31 = load i32, ptr %13, align 8, !tbaa !18
  %32 = icmp eq i32 %31, %30
  %33 = getelementptr inbounds nuw i8, ptr %13, i64 4
  %34 = load i32, ptr %33, align 4
  %35 = icmp eq i32 %34, 22
  %36 = select i1 %32, i1 %35, i1 false
  br i1 %36, label %43, label %_ZNK14bv_recognizers9is_bv_sleEPK4expr.exit

_ZNK14bv_recognizers9is_bv_sleEPK4expr.exit:      ; preds = %_ZNK14bv_recognizers9is_bv_uleEPK4expr.exit
  %37 = load i32, ptr %13, align 8, !tbaa !18
  %38 = icmp eq i32 %37, %30
  %39 = getelementptr inbounds nuw i8, ptr %13, i64 4
  %40 = load i32, ptr %39, align 4
  %41 = icmp eq i32 %40, 23
  %42 = select i1 %38, i1 %41, i1 false
  br i1 %42, label %43, label %_ZNK14bv_recognizers9is_bv_sleEPK4expr.exit.thread

43:                                               ; preds = %_ZNK14bv_recognizers9is_bv_sleEPK4expr.exit, %_ZNK14bv_recognizers9is_bv_uleEPK4expr.exit, %_ZNK17arith_recognizers13is_arith_exprEPK4expr.exit
  %44 = call noundef i32 @_ZN6spacer12get_num_varsEP4expr(ptr noundef nonnull %0)
  %45 = icmp eq i32 %44, 1
  br i1 %45, label %46, label %_ZNK14bv_recognizers9is_bv_sleEPK4expr.exit.thread

46:                                               ; preds = %43
  %47 = call noundef zeroext i1 @_ZN6spacer21has_nonlinear_var_mulEP4exprR11ast_manager(ptr noundef nonnull %0, ptr noundef nonnull align 8 dereferenceable(976) %1)
  %48 = xor i1 %47, true
  br label %_ZNK14bv_recognizers9is_bv_sleEPK4expr.exit.thread

_ZNK14bv_recognizers9is_bv_sleEPK4expr.exit.thread: ; preds = %9, %2, %_ZNK14bv_recognizers9is_bv_sleEPK4expr.exit, %43, %46, %24
  %.0 = phi i1 [ %27, %24 ], [ false, %43 ], [ %48, %46 ], [ false, %_ZNK14bv_recognizers9is_bv_sleEPK4expr.exit ], [ false, %2 ], [ false, %9 ]
  call void @llvm.lifetime.end.p0(i64 16, ptr nonnull %4) #17
  call void @llvm.lifetime.end.p0(i64 24, ptr nonnull %3) #17
  ret i1 %.0
}